target datalayout = "e-m:e-p270:32:32-p271:32:32-p272:64:64-i64:64-i128:128-f80:128-n8:16:32:64-S128"
target triple = "x86_64-pc-linux-gnu"

%"class.Imath_3_2::half" = type { i16 }
%"class.Imf_3_4::HalfLut" = type { %class.halfFunction }
%class.halfFunction = type { ptr }

; Function Attrs: inlinehint mustprogress nounwind uwtable
define linkonce_odr hidden noundef zeroext i16 @_ZNK9Imath_3_24half4bitsEv(ptr noundef nonnull align 2 dereferenceable(2) %0) #6 comdat align 2 {
  %2 = alloca ptr, align 8
  store ptr %0, ptr %2, align 8, !tbaa !8
  %3 = load ptr, ptr %2, align 8
  %4 = getelementptr inbounds nuw %"class.Imath_3_2::half", ptr %3, i32 0, i32 0
  %5 = load i16, ptr %4, align 2, !tbaa !57
  ret i16 %5
}

; Function Attrs: inlinehint mustprogress nounwind uwtable
define linkonce_odr hidden i16 @_ZNK12halfFunctionIN9Imath_3_24halfEEclES1_(ptr noundef nonnull align 8 dereferenceable(8) %0, i16 %1) #6 comdat align 2 {
  %3 = alloca %"class.Imath_3_2::half", align 2
  %4 = alloca %"class.Imath_3_2::half", align 2
  %5 = alloca ptr, align 8
  %6 = getelementptr inbounds nuw %"class.Imath_3_2::half", ptr %4, i32 0, i32 0
  store i16 %1, ptr %6, align 2
  store ptr %0, ptr %5, align 8, !tbaa !17
  %7 = load ptr, ptr %5, align 8
  %8 = getelementptr inbounds nuw %class.halfFunction, ptr %7, i32 0, i32 0
  %9 = load ptr, ptr %8, align 8, !tbaa !19
  %10 = call noundef zeroext i16 @_ZNK9Imath_3_24half4bitsEv(ptr noundef nonnull align 2 dereferenceable(2) %4) #3
  %11 = zext i16 %10 to i64
  %12 = getelementptr inbounds nuw %"class.Imath_3_2::half", ptr %9, i64 %11
  call void @llvm.memcpy.p0.p0.i64(ptr align 2 %3, ptr align 2 %12, i64 2, i1 false), !tbaa.struct !12
  %13 = getelementptr inbounds nuw %"class.Imath_3_2::half", ptr %3, i32 0, i32 0
  %14 = load i16, ptr %13, align 2
  ret i16 %14
}

; Function Attrs: mustprogress uwtable
define void @_ZNK7Imf_3_47HalfLut5applyEPN9Imath_3_24halfEii(ptr noundef nonnull align 8 dereferenceable(8) %0, ptr noundef %1, i32 noundef %2, i32 noundef %3) #4 align 2 {
  %5 = alloca ptr, align 8
  %6 = alloca ptr, align 8
  %7 = alloca i32, align 4
  %8 = alloca i32, align 4
  %9 = alloca %"class.Imath_3_2::half", align 2
  %10 = alloca %"class.Imath_3_2::half", align 2
  store ptr %0, ptr %5, align 8, !tbaa !3
  store ptr %1, ptr %6, align 8, !tbaa !8
  store i32 %2, ptr %7, align 4, !tbaa !10
  store i32 %3, ptr %8, align 4, !tbaa !10
  %11 = load ptr, ptr %5, align 8
  br label %12

12:                                               ; preds = %15, %4
  %13 = load i32, ptr %7, align 4, !tbaa !10
  %14 = icmp ne i32 %13, 0
  br i1 %14, label %15, label %29

15:                                               ; preds = %12
  call void @llvm.lifetime.start.p0(i64 2, ptr %9) #3
  %16 = getelementptr inbounds nuw %"class.Imf_3_4::HalfLut", ptr %11, i32 0, i32 0
  %17 = load ptr, ptr %6, align 8, !tbaa !8
  call void @llvm.memcpy.p0.p0.i64(ptr align 2 %10, ptr align 2 %17, i64 2, i1 false), !tbaa.struct !12
  %18 = getelementptr inbounds nuw %"class.Imath_3_2::half", ptr %10, i32 0, i32 0
  %19 = load i16, ptr %18, align 2
  %20 = call i16 @_ZNK12halfFunctionIN9Imath_3_24halfEEclES1_(ptr noundef nonnull align 8 dereferenceable(8) %16, i16 %19)
  %21 = getelementptr inbounds nuw %"class.Imath_3_2::half", ptr %9, i32 0, i32 0
  store i16 %20, ptr %21, align 2
  %22 = load ptr, ptr %6, align 8, !tbaa !8
  call void @llvm.memcpy.p0.p0.i64(ptr align 2 %22, ptr align 2 %9, i64 2, i1 false), !tbaa.struct !12
  call void @llvm.lifetime.end.p0(i64 2, ptr %9) #3
  %23 = load i32, ptr %8, align 4, !tbaa !10
  %24 = load ptr, ptr %6, align 8, !tbaa !8
  %25 = sext i32 %23 to i64
  %26 = getelementptr inbounds %"class.Imath_3_2::half", ptr %24, i64 %25
  store ptr %26, ptr %6, align 8, !tbaa !8
  %27 = load i32, ptr %7, align 4, !tbaa !10
  %28 = sub nsw i32 %27, 1
  store i32 %28, ptr %7, align 4, !tbaa !10
  br label %12, !llvm.loop !15

29:                                               ; preds = %12
  ret void
}