; Function Attrs: mustprogress nofree norecurse nosync nounwind memory(read, argmem: readwrite, inaccessiblemem: none) uwtable
define void @_ZNK7Imf_3_47HalfLut5applyEPN9Imath_3_24halfEii(ptr noundef nonnull readonly align 8 captures(none) dereferenceable(8) %0, ptr noundef captures(none) %1, i32 noundef %2, i32 noundef %3) local_unnamed_addr #3 align 2 {
  %.not8 = icmp eq i32 %2, 0
  br i1 %.not8, label %._crit_edge, label %.lr.ph

.lr.ph:                                           ; preds = %4
  %5 = load ptr, ptr %0, align 8, !tbaa !3
  %6 = sext i32 %3 to i64
  br label %7

7:                                                ; preds = %.lr.ph, %7
  %.010 = phi ptr [ %1, %.lr.ph ], [ %10, %7 ]
  %.079 = phi i32 [ %2, %.lr.ph ], [ %11, %7 ]
  %.sroa.0.0.copyload = load i16, ptr %.010, align 2, !tbaa !9
  %8 = zext i16 %.sroa.0.0.copyload to i64
  %9 = getelementptr inbounds nuw %"class.Imath_3_2::half", ptr %5, i64 %8
  %.sroa.0.0.copyload.i = load i16, ptr %9, align 2, !tbaa !9
  store i16 %.sroa.0.0.copyload.i, ptr %.010, align 2, !tbaa !9
  %10 = getelementptr inbounds %"class.Imath_3_2::half", ptr %.010, i64 %6
  %11 = add nsw i32 %.079, -1
  %.not = icmp eq i32 %11, 0
  br i1 %.not, label %._crit_edge, label %7, !llvm.loop !11

._crit_edge:                                      ; preds = %7, %4
  ret void
}